target datalayout = "e-m:e-p270:32:32-p271:32:32-p272:64:64-i64:64-i128:128-f80:128-n8:16:32:64-S128"
target triple = "x86_64-pc-linux-gnu"

%struct.SESSION_DATA_STRUCTURE = type { i8, i8, i8, i32, i8 }
%struct._asn1_ctx_t = type { i32, i32, i8, ptr, ptr, ptr, ptr, ptr, %struct.anon.0, %struct.anon.3, %struct.anon.4, ptr }
%struct.anon.0 = type { i32, i8, i8, i8, ptr, ptr, i32, i32, ptr, ptr, ptr, %union.anon }
%union.anon = type { %struct.anon.1 }
%struct.anon.1 = type { ptr }
%struct.anon.3 = type { ptr, ptr, ptr }
%struct.anon.4 = type { i32, i8, ptr, i32, i32, ptr, ptr, ptr, %union.anon.5 }
%union.anon.5 = type { %struct.anon.6 }
%struct.anon.6 = type { ptr }

@.str.14 = private unnamed_addr constant [13 x i8] c"unbind-error\00", align 1
@ett_ros_unbind_error = internal global i32 0, align 4
@top_tree = internal global ptr null, align 8

; Function Attrs: null_pointer_is_valid sspstrong uwtable
define internal i32 @dissect_ros_T_unbind_error(i1 noundef zeroext %0, ptr noundef %1, i32 noundef %2, ptr noundef %3, ptr noundef %4, i32 noundef %5) #0 {
  %7 = alloca i8, align 1
  %8 = alloca ptr, align 8
  %9 = alloca i32, align 4
  %10 = alloca ptr, align 8
  %11 = alloca ptr, align 8
  %12 = alloca i32, align 4
  %13 = alloca ptr, align 8
  %14 = alloca ptr, align 8
  %15 = zext i1 %0 to i8
  store i8 %15, ptr %7, align 1
  store ptr %1, ptr %8, align 8
  store i32 %2, ptr %9, align 4
  store ptr %3, ptr %10, align 8
  store ptr %4, ptr %11, align 8
  store i32 %5, ptr %12, align 4
  call void @llvm.lifetime.start.p0(i64 8, ptr %13) #7
  call void @llvm.lifetime.start.p0(i64 8, ptr %14) #7
  %16 = load ptr, ptr %10, align 8
  %17 = getelementptr inbounds nuw %struct._asn1_ctx_t, ptr %16, i32 0, i32 7
  %18 = load ptr, ptr %17, align 8
  store ptr %18, ptr %14, align 8
  %19 = load ptr, ptr %11, align 8
  %20 = load ptr, ptr %8, align 8
  %21 = load i32, ptr %9, align 4
  %22 = load i32, ptr @ett_ros_unbind_error, align 4
  %23 = call ptr @proto_tree_add_subtree(ptr noundef %19, ptr noundef %20, i32 noundef %21, i32 noundef -1, i32 noundef %22, ptr noundef null, ptr noundef @.str.14)
  %24 = load ptr, ptr %14, align 8
  %25 = icmp ne ptr %24, null
  br i1 %25, label %26, label %54

26:                                               ; preds = %6
  %27 = load ptr, ptr %14, align 8
  %28 = getelementptr inbounds nuw %struct.SESSION_DATA_STRUCTURE, ptr %27, i32 0, i32 2
  %29 = load i8, ptr %28, align 2
  %30 = zext i8 %29 to i32
  %31 = icmp ne i32 %30, 0
  br i1 %31, label %32, label %54

32:                                               ; preds = %26
  %33 = load ptr, ptr %10, align 8
  %34 = getelementptr inbounds nuw %struct._asn1_ctx_t, ptr %33, i32 0, i32 3
  %35 = load ptr, ptr %34, align 8
  %36 = load ptr, ptr %14, align 8
  %37 = getelementptr inbounds nuw %struct.SESSION_DATA_STRUCTURE, ptr %36, i32 0, i32 2
  %38 = load i8, ptr %37, align 2
  %39 = zext i8 %38 to i32
  %40 = call ptr @find_oid_by_pres_ctx_id(ptr noundef %35, i32 noundef %39)
  store ptr %40, ptr %13, align 8
  %41 = icmp ne ptr %40, null
  br i1 %41, label %42, label %54

42:                                               ; preds = %32
  %43 = load ptr, ptr %14, align 8
  %44 = getelementptr inbounds nuw %struct.SESSION_DATA_STRUCTURE, ptr %43, i32 0, i32 3
  store i32 838860800, ptr %44, align 4
  %45 = load ptr, ptr %13, align 8
  %46 = load ptr, ptr %8, align 8
  %47 = load i32, ptr %9, align 4
  %48 = load ptr, ptr %10, align 8
  %49 = getelementptr inbounds nuw %struct._asn1_ctx_t, ptr %48, i32 0, i32 3
  %50 = load ptr, ptr %49, align 8
  %51 = load ptr, ptr @top_tree, align 8
  %52 = load ptr, ptr %14, align 8
  %53 = call i32 @call_ros_oid_callback(ptr noundef %45, ptr noundef %46, i32 noundef %47, ptr noundef %50, ptr noundef %51, ptr noundef %52)
  store i32 %53, ptr %9, align 4
  br label %54

54:                                               ; preds = %42, %32, %26, %6
  %55 = load i32, ptr %9, align 4
  call void @llvm.lifetime.end.p0(i64 8, ptr %14) #7
  call void @llvm.lifetime.end.p0(i64 8, ptr %13) #7
  ret i32 %55
}