; Function Attrs: null_pointer_is_valid sspstrong uwtable
define internal i32 @dissect_ros_T_unbind_error(i1 zeroext %0, ptr noundef %1, i32 noundef %2, ptr noundef readonly captures(none) %3, ptr noundef %4, i32 %5) #0 {
  %7 = getelementptr inbounds nuw i8, ptr %3, i64 48
  %8 = load ptr, ptr %7, align 8
  %9 = load i32, ptr @ett_ros_unbind_error, align 4
  %10 = tail call ptr @proto_tree_add_subtree(ptr noundef %4, ptr noundef %1, i32 noundef %2, i32 noundef -1, i32 noundef %9, ptr noundef null, ptr noundef nonnull @.str.14)
  %.not = icmp eq ptr %8, null
  br i1 %.not, label %24, label %11

11:                                               ; preds = %6
  %12 = getelementptr inbounds nuw i8, ptr %8, i64 2
  %13 = load i8, ptr %12, align 2
  %.not17 = icmp eq i8 %13, 0
  br i1 %.not17, label %24, label %14

14:                                               ; preds = %11
  %15 = zext i8 %13 to i32
  %16 = getelementptr inbounds nuw i8, ptr %3, i64 16
  %17 = load ptr, ptr %16, align 8
  %18 = tail call ptr @find_oid_by_pres_ctx_id(ptr noundef %17, i32 noundef %15)
  %.not18 = icmp eq ptr %18, null
  br i1 %.not18, label %24, label %19

19:                                               ; preds = %14
  %20 = getelementptr inbounds nuw i8, ptr %8, i64 4
  store i32 838860800, ptr %20, align 4
  %21 = load ptr, ptr %16, align 8
  %22 = load ptr, ptr @top_tree, align 8
  %23 = tail call i32 @call_ros_oid_callback(ptr noundef nonnull %18, ptr noundef %1, i32 noundef %2, ptr noundef %21, ptr noundef %22, ptr noundef nonnull %8)
  br label %24

24:                                               ; preds = %19, %14, %11, %6
  %.0 = phi i32 [ %23, %19 ], [ %2, %14 ], [ %2, %11 ], [ %2, %6 ]
  ret i32 %.0
}